target datalayout = "e-m:e-p270:32:32-p271:32:32-p272:64:64-i64:64-i128:128-f80:128-n8:16:32:64-S128"
target triple = "x86_64-unknown-linux-gnu"

%"class.cvc5::internal::String" = type { %"class.std::vector" }
%"class.std::vector" = type { %"struct.std::_Vector_base" }
%"struct.std::_Vector_base" = type { %"struct.std::_Vector_base<unsigned int, std::allocator<unsigned int>>::_Vector_impl" }
%"struct.std::_Vector_base<unsigned int, std::allocator<unsigned int>>::_Vector_impl" = type { %"struct.std::_Vector_base<unsigned int, std::allocator<unsigned int>>::_Vector_impl_data" }
%"struct.std::_Vector_base<unsigned int, std::allocator<unsigned int>>::_Vector_impl_data" = type { ptr, ptr, ptr }

; Function Attrs: mustprogress nounwind uwtable
define linkonce_odr hidden noundef i64 @_ZNKSt6vectorIjSaIjEE4sizeEv(ptr noundef nonnull align 8 dereferenceable(24) %this) #5 comdat align 2 {
entry:
  %this.addr = alloca ptr, align 8
  store ptr %this, ptr %this.addr, align 8
  %this1 = load ptr, ptr %this.addr, align 8
  %_M_impl = getelementptr inbounds %"struct.std::_Vector_base", ptr %this1, i32 0, i32 0
  %_M_finish = getelementptr inbounds %"struct.std::_Vector_base<unsigned int, std::allocator<unsigned int>>::_Vector_impl_data", ptr %_M_impl, i32 0, i32 1
  %0 = load ptr, ptr %_M_finish, align 8
  %_M_impl2 = getelementptr inbounds %"struct.std::_Vector_base", ptr %this1, i32 0, i32 0
  %_M_start = getelementptr inbounds %"struct.std::_Vector_base<unsigned int, std::allocator<unsigned int>>::_Vector_impl_data", ptr %_M_impl2, i32 0, i32 0
  %1 = load ptr, ptr %_M_start, align 8
  %sub.ptr.lhs.cast = ptrtoint ptr %0 to i64
  %sub.ptr.rhs.cast = ptrtoint ptr %1 to i64
  %sub.ptr.sub = sub i64 %sub.ptr.lhs.cast, %sub.ptr.rhs.cast
  %sub.ptr.div = sdiv exact i64 %sub.ptr.sub, 4
  ret i64 %sub.ptr.div
}

; Function Attrs: mustprogress nounwind uwtable
define linkonce_odr hidden noundef nonnull align 4 dereferenceable(4) ptr @_ZNKSt6vectorIjSaIjEEixEm(ptr noundef nonnull align 8 dereferenceable(24) %this, i64 noundef %__n) #5 comdat align 2 {
entry:
  %this.addr = alloca ptr, align 8
  %__n.addr = alloca i64, align 8
  store ptr %this, ptr %this.addr, align 8
  store i64 %__n, ptr %__n.addr, align 8
  %this1 = load ptr, ptr %this.addr, align 8
  %_M_impl = getelementptr inbounds %"struct.std::_Vector_base", ptr %this1, i32 0, i32 0
  %_M_start = getelementptr inbounds %"struct.std::_Vector_base<unsigned int, std::allocator<unsigned int>>::_Vector_impl_data", ptr %_M_impl, i32 0, i32 0
  %0 = load ptr, ptr %_M_start, align 8
  %1 = load i64, ptr %__n.addr, align 8
  %add.ptr = getelementptr inbounds i32, ptr %0, i64 %1
  ret ptr %add.ptr
}

; Function Attrs: mustprogress nounwind uwtable
define linkonce_odr hidden noundef i64 @_ZNK4cvc58internal6String4sizeEv(ptr noundef nonnull align 8 dereferenceable(24) %this) #5 comdat align 2 {
entry:
  %this.addr = alloca ptr, align 8
  store ptr %this, ptr %this.addr, align 8
  %this1 = load ptr, ptr %this.addr, align 8
  %d_str = getelementptr inbounds %"class.cvc5::internal::String", ptr %this1, i32 0, i32 0
  %call = call noundef i64 @_ZNKSt6vectorIjSaIjEE4sizeEv(ptr noundef nonnull align 8 dereferenceable(24) %d_str) #3
  ret i64 %call
}

; Function Attrs: mustprogress uwtable
define hidden noundef i32 @_ZNK4cvc58internal6String3cmpERKS1_(ptr noundef nonnull align 8 dereferenceable(24) %this, ptr noundef nonnull align 8 dereferenceable(24) %y) #4 align 2 {
entry:
  %retval = alloca i32, align 4
  %this.addr = alloca ptr, align 8
  %y.addr = alloca ptr, align 8
  %i = alloca i32, align 4
  %cp = alloca i32, align 4
  %cpy = alloca i32, align 4
  store ptr %this, ptr %this.addr, align 8
  store ptr %y, ptr %y.addr, align 8
  %this1 = load ptr, ptr %this.addr, align 8
  %call = call noundef i64 @_ZNK4cvc58internal6String4sizeEv(ptr noundef nonnull align 8 dereferenceable(24) %this1)
  %0 = load ptr, ptr %y.addr, align 8
  %call2 = call noundef i64 @_ZNK4cvc58internal6String4sizeEv(ptr noundef nonnull align 8 dereferenceable(24) %0)
  %cmp = icmp ne i64 %call, %call2
  br i1 %cmp, label %if.then, label %if.end

if.then:                                          ; preds = %entry
  %call3 = call noundef i64 @_ZNK4cvc58internal6String4sizeEv(ptr noundef nonnull align 8 dereferenceable(24) %this1)
  %1 = load ptr, ptr %y.addr, align 8
  %call4 = call noundef i64 @_ZNK4cvc58internal6String4sizeEv(ptr noundef nonnull align 8 dereferenceable(24) %1)
  %cmp5 = icmp ult i64 %call3, %call4
  %cond = select i1 %cmp5, i32 -1, i32 1
  store i32 %cond, ptr %retval, align 4
  br label %return

if.end:                                           ; preds = %entry
  store i32 0, ptr %i, align 4
  br label %for.cond

for.cond:                                         ; preds = %for.inc, %if.end
  %2 = load i32, ptr %i, align 4
  %conv = zext i32 %2 to i64
  %call6 = call noundef i64 @_ZNK4cvc58internal6String4sizeEv(ptr noundef nonnull align 8 dereferenceable(24) %this1)
  %cmp7 = icmp ult i64 %conv, %call6
  br i1 %cmp7, label %for.body, label %for.end

for.body:                                         ; preds = %for.cond
  %d_str = getelementptr inbounds %"class.cvc5::internal::String", ptr %this1, i32 0, i32 0
  %3 = load i32, ptr %i, align 4
  %conv8 = zext i32 %3 to i64
  %call9 = call noundef nonnull align 4 dereferenceable(4) ptr @_ZNKSt6vectorIjSaIjEEixEm(ptr noundef nonnull align 8 dereferenceable(24) %d_str, i64 noundef %conv8) #3
  %4 = load i32, ptr %call9, align 4
  %5 = load ptr, ptr %y.addr, align 8
  %d_str10 = getelementptr inbounds %"class.cvc5::internal::String", ptr %5, i32 0, i32 0
  %6 = load i32, ptr %i, align 4
  %conv11 = zext i32 %6 to i64
  %call12 = call noundef nonnull align 4 dereferenceable(4) ptr @_ZNKSt6vectorIjSaIjEEixEm(ptr noundef nonnull align 8 dereferenceable(24) %d_str10, i64 noundef %conv11) #3
  %7 = load i32, ptr %call12, align 4
  %cmp13 = icmp ne i32 %4, %7
  br i1 %cmp13, label %if.then14, label %if.end23

if.then14:                                        ; preds = %for.body
  %d_str15 = getelementptr inbounds %"class.cvc5::internal::String", ptr %this1, i32 0, i32 0
  %8 = load i32, ptr %i, align 4
  %conv16 = zext i32 %8 to i64
  %call17 = call noundef nonnull align 4 dereferenceable(4) ptr @_ZNKSt6vectorIjSaIjEEixEm(ptr noundef nonnull align 8 dereferenceable(24) %d_str15, i64 noundef %conv16) #3
  %9 = load i32, ptr %call17, align 4
  store i32 %9, ptr %cp, align 4
  %10 = load ptr, ptr %y.addr, align 8
  %d_str18 = getelementptr inbounds %"class.cvc5::internal::String", ptr %10, i32 0, i32 0
  %11 = load i32, ptr %i, align 4
  %conv19 = zext i32 %11 to i64
  %call20 = call noundef nonnull align 4 dereferenceable(4) ptr @_ZNKSt6vectorIjSaIjEEixEm(ptr noundef nonnull align 8 dereferenceable(24) %d_str18, i64 noundef %conv19) #3
  %12 = load i32, ptr %call20, align 4
  store i32 %12, ptr %cpy, align 4
  %13 = load i32, ptr %cp, align 4
  %14 = load i32, ptr %cpy, align 4
  %cmp21 = icmp ult i32 %13, %14
  %cond22 = select i1 %cmp21, i32 -1, i32 1
  store i32 %cond22, ptr %retval, align 4
  br label %return

if.end23:                                         ; preds = %for.body
  br label %for.inc

for.inc:                                          ; preds = %if.end23
  %15 = load i32, ptr %i, align 4
  %inc = add i32 %15, 1
  store i32 %inc, ptr %i, align 4
  br label %for.cond, !llvm.loop !6

for.end:                                          ; preds = %for.cond
  store i32 0, ptr %retval, align 4
  br label %return

return:                                           ; preds = %for.end, %if.then14, %if.then
  %16 = load i32, ptr %retval, align 4
  ret i32 %16
}