; Function Attrs: mustprogress nofree norecurse nosync nounwind willreturn memory(read, inaccessiblemem: none) uwtable
define hidden noundef i32 @_ZNK4cvc58internal6String3cmpERKS1_(ptr nocapture noundef nonnull readonly align 8 dereferenceable(24) %this, ptr nocapture noundef nonnull readonly align 8 dereferenceable(24) %y) local_unnamed_addr #4 align 2 {
entry:
  %_M_finish.i.i = getelementptr inbounds i8, ptr %this, i64 8
  %0 = load ptr, ptr %_M_finish.i.i, align 8
  %1 = load ptr, ptr %this, align 8
  %sub.ptr.lhs.cast.i.i = ptrtoint ptr %0 to i64
  %sub.ptr.rhs.cast.i.i = ptrtoint ptr %1 to i64
  %sub.ptr.sub.i.i = sub i64 %sub.ptr.lhs.cast.i.i, %sub.ptr.rhs.cast.i.i
  %sub.ptr.div.i.i = ashr exact i64 %sub.ptr.sub.i.i, 2
  %_M_finish.i.i9 = getelementptr inbounds i8, ptr %y, i64 8
  %2 = load ptr, ptr %_M_finish.i.i9, align 8
  %3 = load ptr, ptr %y, align 8
  %sub.ptr.lhs.cast.i.i10 = ptrtoint ptr %2 to i64
  %sub.ptr.rhs.cast.i.i11 = ptrtoint ptr %3 to i64
  %sub.ptr.sub.i.i12 = sub i64 %sub.ptr.lhs.cast.i.i10, %sub.ptr.rhs.cast.i.i11
  %sub.ptr.div.i.i13 = ashr exact i64 %sub.ptr.sub.i.i12, 2
  %cmp.not = icmp eq i64 %sub.ptr.div.i.i, %sub.ptr.div.i.i13
  br i1 %cmp.not, label %for.cond.preheader, label %if.then

for.cond.preheader:                               ; preds = %entry
  %cmp733.not = icmp eq ptr %0, %1
  br i1 %cmp733.not, label %return, label %for.body

if.then:                                          ; preds = %entry
  %cmp5 = icmp ult i64 %sub.ptr.div.i.i, %sub.ptr.div.i.i13
  %cond = select i1 %cmp5, i32 -1, i32 1
  br label %return

for.cond:                                         ; preds = %for.body
  %inc = add i32 %i.034, 1
  %conv = zext i32 %inc to i64
  %cmp7 = icmp ugt i64 %sub.ptr.div.i.i, %conv
  br i1 %cmp7, label %for.body, label %return, !llvm.loop !6

for.body:                                         ; preds = %for.cond.preheader, %for.cond
  %conv35 = phi i64 [ %conv, %for.cond ], [ 0, %for.cond.preheader ]
  %i.034 = phi i32 [ %inc, %for.cond ], [ 0, %for.cond.preheader ]
  %add.ptr.i = getelementptr inbounds i32, ptr %1, i64 %conv35
  %4 = load i32, ptr %add.ptr.i, align 4
  %add.ptr.i29 = getelementptr inbounds i32, ptr %3, i64 %conv35
  %5 = load i32, ptr %add.ptr.i29, align 4
  %cmp13.not = icmp eq i32 %4, %5
  br i1 %cmp13.not, label %for.cond, label %if.then14

if.then14:                                        ; preds = %for.body
  %cmp21 = icmp ult i32 %4, %5
  %cond22 = select i1 %cmp21, i32 -1, i32 1
  br label %return

return:                                           ; preds = %for.cond, %for.cond.preheader, %if.then14, %if.then
  %retval.0 = phi i32 [ %cond, %if.then ], [ %cond22, %if.then14 ], [ 0, %for.cond.preheader ], [ 0, %for.cond ]
  ret i32 %retval.0
}